target datalayout = "e-m:e-p270:32:32-p271:32:32-p272:64:64-i64:64-i128:128-f80:128-n8:16:32:64-S128"
target triple = "x86_64-pc-linux-gnu"

%struct.pmix_list_t = type { %struct.pmix_object_t, %struct.pmix_list_item_t, i64 }
%struct.pmix_object_t = type { %union.pthread_mutex_t, ptr, i32, %struct.pmix_tma }
%union.pthread_mutex_t = type { %struct.__pthread_mutex_s }
%struct.__pthread_mutex_s = type { i32, i32, i32, i32, i32, i16, i16, %struct.__pthread_internal_list }
%struct.__pthread_internal_list = type { ptr, ptr }
%struct.pmix_tma = type { ptr, ptr, ptr, ptr, ptr, ptr, ptr, ptr }
%struct.pmix_list_item_t = type { %struct.pmix_object_t, ptr, ptr, i32 }
%struct.prte_process_info_t = type { %struct.pmix_proc, %struct.pmix_proc, ptr, %struct.pmix_proc, i32, i32, i32, ptr, ptr, i32, i8, ptr, i16, ptr, ptr, i8, ptr, i8 }
%struct.pmix_proc = type { [256 x i8], i32 }
%struct.prte_node_t = type { %struct.pmix_list_item_t, i32, ptr, ptr, ptr, ptr, ptr, ptr, i16, ptr, i16, i8, i32, i32, i32, i32, ptr, i8, %struct.pmix_list_t }

@prte_process_info = external global %struct.prte_process_info_t, align 8
@.str.15 = private unnamed_addr constant [10 x i8] c"localhost\00", align 1
@.str.16 = private unnamed_addr constant [10 x i8] c"127.0.0.1\00", align 1

; Function Attrs: nounwind uwtable
define internal zeroext i1 @quickmatch(ptr noundef %0, ptr noundef %1) #0 {
  %3 = alloca i1, align 1
  %4 = alloca ptr, align 8
  %5 = alloca ptr, align 8
  %6 = alloca i32, align 4
  %7 = alloca i32, align 4
  store ptr %0, ptr %4, align 8, !tbaa !3
  store ptr %1, ptr %5, align 8, !tbaa !7
  call void @llvm.lifetime.start.p0(i64 4, ptr %6) #12
  %8 = load ptr, ptr %4, align 8, !tbaa !3
  %9 = getelementptr inbounds nuw %struct.prte_node_t, ptr %8, i32 0, i32 2
  %10 = load ptr, ptr %9, align 8, !tbaa !30
  %11 = load ptr, ptr %5, align 8, !tbaa !7
  %12 = call i32 @strcmp(ptr noundef %10, ptr noundef %11) #13
  %13 = icmp eq i32 0, %12
  br i1 %13, label %14, label %15

14:                                               ; preds = %2
  store i1 true, ptr %3, align 1
  store i32 1, ptr %7, align 4
  br label %64

15:                                               ; preds = %2
  %16 = load ptr, ptr %4, align 8, !tbaa !3
  %17 = getelementptr inbounds nuw %struct.prte_node_t, ptr %16, i32 0, i32 2
  %18 = load ptr, ptr %17, align 8, !tbaa !30
  %19 = load ptr, ptr getelementptr inbounds nuw (%struct.prte_process_info_t, ptr @prte_process_info, i32 0, i32 7), align 8, !tbaa !31
  %20 = call i32 @strcmp(ptr noundef %18, ptr noundef %19) #13
  %21 = icmp eq i32 0, %20
  br i1 %21, label %22, label %31

22:                                               ; preds = %15
  %23 = load ptr, ptr %5, align 8, !tbaa !7
  %24 = call i32 @strcmp(ptr noundef %23, ptr noundef @.str.15) #13
  %25 = icmp eq i32 0, %24
  br i1 %25, label %30, label %26

26:                                               ; preds = %22
  %27 = load ptr, ptr %5, align 8, !tbaa !7
  %28 = call i32 @strcmp(ptr noundef %27, ptr noundef @.str.16) #13
  %29 = icmp eq i32 0, %28
  br i1 %29, label %30, label %31

30:                                               ; preds = %26, %22
  store i1 true, ptr %3, align 1
  store i32 1, ptr %7, align 4
  br label %64

31:                                               ; preds = %26, %15
  %32 = load ptr, ptr %4, align 8, !tbaa !3
  %33 = getelementptr inbounds nuw %struct.prte_node_t, ptr %32, i32 0, i32 4
  %34 = load ptr, ptr %33, align 8, !tbaa !35
  %35 = icmp ne ptr null, %34
  br i1 %35, label %36, label %63

36:                                               ; preds = %31
  store i32 0, ptr %6, align 4, !tbaa !9
  br label %37

37:                                               ; preds = %59, %36
  %38 = load ptr, ptr %4, align 8, !tbaa !3
  %39 = getelementptr inbounds nuw %struct.prte_node_t, ptr %38, i32 0, i32 4
  %40 = load ptr, ptr %39, align 8, !tbaa !35
  %41 = load i32, ptr %6, align 4, !tbaa !9
  %42 = sext i32 %41 to i64
  %43 = getelementptr inbounds ptr, ptr %40, i64 %42
  %44 = load ptr, ptr %43, align 8, !tbaa !7
  %45 = icmp ne ptr null, %44
  br i1 %45, label %46, label %62

46:                                               ; preds = %37
  %47 = load ptr, ptr %4, align 8, !tbaa !3
  %48 = getelementptr inbounds nuw %struct.prte_node_t, ptr %47, i32 0, i32 4
  %49 = load ptr, ptr %48, align 8, !tbaa !35
  %50 = load i32, ptr %6, align 4, !tbaa !9
  %51 = sext i32 %50 to i64
  %52 = getelementptr inbounds ptr, ptr %49, i64 %51
  %53 = load ptr, ptr %52, align 8, !tbaa !7
  %54 = load ptr, ptr %5, align 8, !tbaa !7
  %55 = call i32 @strcmp(ptr noundef %53, ptr noundef %54) #13
  %56 = icmp eq i32 0, %55
  br i1 %56, label %57, label %58

57:                                               ; preds = %46
  store i1 true, ptr %3, align 1
  store i32 1, ptr %7, align 4
  br label %64

58:                                               ; preds = %46
  br label %59

59:                                               ; preds = %58
  %60 = load i32, ptr %6, align 4, !tbaa !9
  %61 = add nsw i32 %60, 1
  store i32 %61, ptr %6, align 4, !tbaa !9
  br label %37, !llvm.loop !36

62:                                               ; preds = %37
  br label %63

63:                                               ; preds = %62, %31
  store i1 false, ptr %3, align 1
  store i32 1, ptr %7, align 4
  br label %64

64:                                               ; preds = %63, %57, %30, %14
  call void @llvm.lifetime.end.p0(i64 4, ptr %6) #12
  %65 = load i1, ptr %3, align 1
  ret i1 %65
}