; Function Attrs: nofree nounwind memory(read, inaccessiblemem: none) uwtable
define internal fastcc noundef zeroext i1 @quickmatch(ptr noundef readonly captures(none) %0, ptr noundef readonly captures(none) %1) unnamed_addr #4 {
  %3 = getelementptr inbounds nuw i8, ptr %0, i64 152
  %4 = load ptr, ptr %3, align 8, !tbaa !27
  %5 = tail call i32 @strcmp(ptr noundef nonnull dereferenceable(1) %4, ptr noundef nonnull dereferenceable(1) %1) #16
  %6 = icmp eq i32 %5, 0
  br i1 %6, label %.loopexit, label %7

7:                                                ; preds = %2
  %8 = load ptr, ptr getelementptr inbounds nuw (i8, ptr @prte_process_info, i64 800), align 8, !tbaa !28
  %9 = tail call i32 @strcmp(ptr noundef nonnull dereferenceable(1) %4, ptr noundef nonnull dereferenceable(1) %8) #16
  %10 = icmp eq i32 %9, 0
  br i1 %10, label %11, label %17

11:                                               ; preds = %7
  %12 = tail call i32 @strcmp(ptr noundef nonnull dereferenceable(1) %1, ptr noundef nonnull dereferenceable(10) @.str.15) #16
  %13 = icmp eq i32 %12, 0
  br i1 %13, label %.loopexit, label %14

14:                                               ; preds = %11
  %15 = tail call i32 @strcmp(ptr noundef nonnull dereferenceable(1) %1, ptr noundef nonnull dereferenceable(10) @.str.16) #16
  %16 = icmp eq i32 %15, 0
  br i1 %16, label %.loopexit, label %17

17:                                               ; preds = %14, %7
  %18 = getelementptr inbounds nuw i8, ptr %0, i64 168
  %19 = load ptr, ptr %18, align 8, !tbaa !32
  %.not = icmp eq ptr %19, null
  br i1 %.not, label %.loopexit, label %.preheader

.preheader:                                       ; preds = %17
  %20 = load ptr, ptr %19, align 8, !tbaa !3
  %.not1415 = icmp eq ptr %20, null
  br i1 %.not1415, label %.loopexit, label %.lr.ph

21:                                               ; preds = %.lr.ph
  %indvars.iv.next = add nuw nsw i64 %indvars.iv, 1
  %22 = getelementptr inbounds nuw ptr, ptr %19, i64 %indvars.iv.next
  %23 = load ptr, ptr %22, align 8, !tbaa !3
  %.not14 = icmp eq ptr %23, null
  br i1 %.not14, label %.loopexit, label %.lr.ph, !llvm.loop !33

.lr.ph:                                           ; preds = %.preheader, %21
  %indvars.iv = phi i64 [ %indvars.iv.next, %21 ], [ 0, %.preheader ]
  %24 = phi ptr [ %23, %21 ], [ %20, %.preheader ]
  %25 = tail call i32 @strcmp(ptr noundef nonnull dereferenceable(1) %24, ptr noundef nonnull dereferenceable(1) %1) #16
  %26 = icmp eq i32 %25, 0
  br i1 %26, label %.loopexit, label %21

.loopexit:                                        ; preds = %.lr.ph, %21, %.preheader, %17, %11, %14, %2
  %.012 = phi i1 [ true, %2 ], [ true, %14 ], [ true, %11 ], [ false, %17 ], [ false, %.preheader ], [ %26, %21 ], [ %26, %.lr.ph ]
  ret i1 %.012
}